; Function Attrs: nounwind uwtable
define noalias noundef ptr @Mpm_ManGetTruthWithCnf(i32 noundef %0) local_unnamed_addr #0 {
  %2 = tail call noalias dereferenceable_or_null(16) ptr @malloc(i64 noundef 16) #20
  %3 = getelementptr inbounds nuw i8, ptr %2, i64 4
  store i32 0, ptr %3, align 4, !tbaa !3
  store i32 1000, ptr %2, align 8, !tbaa !10
  %4 = tail call noalias dereferenceable_or_null(8000) ptr @malloc(i64 noundef 8000) #20
  %5 = getelementptr inbounds nuw i8, ptr %2, i64 8
  store ptr %4, ptr %5, align 8, !tbaa !11
  br label %6

6:                                                ; preds = %1, %36
  %7 = phi ptr [ %4, %1 ], [ %.pre.i9, %36 ]
  %8 = phi i32 [ 1000, %1 ], [ %37, %36 ]
  %9 = phi i32 [ 0, %1 ], [ %38, %36 ]
  %indvars.iv = phi i64 [ 0, %1 ], [ %indvars.iv.next, %36 ]
  %10 = getelementptr inbounds nuw [595 x %struct.Mpm_Dsd_t_], ptr @s_DsdClass6, i64 0, i64 %indvars.iv
  %11 = getelementptr inbounds nuw i8, ptr %10, i64 8
  %12 = load i32, ptr %11, align 8, !tbaa !12
  %.not = icmp sgt i32 %12, %0
  br i1 %.not, label %36, label %13

13:                                               ; preds = %6
  %14 = getelementptr inbounds nuw i8, ptr %10, i64 16
  %15 = load i64, ptr %14, align 16, !tbaa !16
  %16 = icmp eq i32 %9, %8
  br i1 %16, label %17, label %Vec_WrdPush.exit

17:                                               ; preds = %13
  %18 = icmp slt i32 %8, 16
  br i1 %18, label %19, label %24

19:                                               ; preds = %17
  %.not9.i.i = icmp eq ptr %7, null
  br i1 %.not9.i.i, label %22, label %20

20:                                               ; preds = %19
  %21 = tail call dereferenceable_or_null(128) ptr @realloc(ptr noundef nonnull %7, i64 noundef 128) #21
  br label %Vec_WrdPush.exit.sink.split

22:                                               ; preds = %19
  %23 = tail call noalias dereferenceable_or_null(128) ptr @malloc(i64 noundef 128) #20
  br label %Vec_WrdPush.exit.sink.split

24:                                               ; preds = %17
  %25 = shl nuw nsw i32 %8, 1
  %.not9.i9.i = icmp eq ptr %7, null
  %26 = zext nneg i32 %25 to i64
  %27 = shl nuw nsw i64 %26, 3
  br i1 %.not9.i9.i, label %30, label %28

28:                                               ; preds = %24
  %29 = tail call ptr @realloc(ptr noundef nonnull %7, i64 noundef %27) #21
  br label %Vec_WrdPush.exit.sink.split

30:                                               ; preds = %24
  %31 = tail call noalias ptr @malloc(i64 noundef %27) #20
  br label %Vec_WrdPush.exit.sink.split

Vec_WrdPush.exit.sink.split:                      ; preds = %28, %30, %20, %22
  %.sink11 = phi ptr [ %21, %20 ], [ %23, %22 ], [ %29, %28 ], [ %31, %30 ]
  %.sink = phi i32 [ 16, %20 ], [ 16, %22 ], [ %25, %28 ], [ %25, %30 ]
  store ptr %.sink11, ptr %5, align 8, !tbaa !11
  store i32 %.sink, ptr %2, align 8, !tbaa !10
  br label %Vec_WrdPush.exit

Vec_WrdPush.exit:                                 ; preds = %Vec_WrdPush.exit.sink.split, %13
  %.pre.i8 = phi ptr [ %7, %13 ], [ %.sink11, %Vec_WrdPush.exit.sink.split ]
  %32 = phi i32 [ %8, %13 ], [ %.sink, %Vec_WrdPush.exit.sink.split ]
  %33 = add nsw i32 %9, 1
  store i32 %33, ptr %3, align 4, !tbaa !3
  %34 = sext i32 %9 to i64
  %35 = getelementptr inbounds i64, ptr %.pre.i8, i64 %34
  store i64 %15, ptr %35, align 8, !tbaa !17
  br label %36

36:                                               ; preds = %6, %Vec_WrdPush.exit
  %.pre.i9 = phi ptr [ %7, %6 ], [ %.pre.i8, %Vec_WrdPush.exit ]
  %37 = phi i32 [ %8, %6 ], [ %32, %Vec_WrdPush.exit ]
  %38 = phi i32 [ %9, %6 ], [ %33, %Vec_WrdPush.exit ]
  %indvars.iv.next = add nuw nsw i64 %indvars.iv, 1
  %exitcond.not = icmp eq i64 %indvars.iv.next, 595
  br i1 %exitcond.not, label %39, label %6, !llvm.loop !18

39:                                               ; preds = %36
  ret ptr %2
}